target datalayout = "e-m:e-p270:32:32-p271:32:32-p272:64:64-i64:64-i128:128-f80:128-n8:16:32:64-S128"
target triple = "x86_64-pc-linux-gnu"

%struct.evp_keymgmt_st = type { i32, i32, i32, ptr, ptr, ptr, %struct.CRYPTO_REF_COUNT, ptr, ptr, ptr, ptr, ptr, ptr, ptr, ptr, ptr, ptr, ptr, ptr, ptr, ptr, ptr, ptr, ptr, ptr, ptr, ptr, ptr, ptr, ptr, ptr, ptr, ptr }
%struct.CRYPTO_REF_COUNT = type { i32 }

; Function Attrs: nounwind uwtable
define i32 @evp_keymgmt_set_params(ptr noundef %0, ptr noundef %1, ptr noundef %2) #0 {
  %4 = alloca i32, align 4
  %5 = alloca ptr, align 8
  %6 = alloca ptr, align 8
  %7 = alloca ptr, align 8
  store ptr %0, ptr %5, align 8, !tbaa !18
  store ptr %1, ptr %6, align 8, !tbaa !58
  store ptr %2, ptr %7, align 8, !tbaa !63
  %8 = load ptr, ptr %5, align 8, !tbaa !18
  %9 = getelementptr inbounds nuw %struct.evp_keymgmt_st, ptr %8, i32 0, i32 11
  %10 = load ptr, ptr %9, align 8, !tbaa !41
  %11 = icmp eq ptr %10, null
  br i1 %11, label %12, label %13

12:                                               ; preds = %3
  store i32 1, ptr %4, align 4
  br label %20

13:                                               ; preds = %3
  %14 = load ptr, ptr %5, align 8, !tbaa !18
  %15 = getelementptr inbounds nuw %struct.evp_keymgmt_st, ptr %14, i32 0, i32 11
  %16 = load ptr, ptr %15, align 8, !tbaa !41
  %17 = load ptr, ptr %6, align 8, !tbaa !58
  %18 = load ptr, ptr %7, align 8, !tbaa !63
  %19 = call i32 %16(ptr noundef %17, ptr noundef %18)
  store i32 %19, ptr %4, align 4
  br label %20

20:                                               ; preds = %13, %12
  %21 = load i32, ptr %4, align 4
  ret i32 %21
}